; Function Attrs: nounwind sspstrong uwtable
define dso_local void @tcg_gen_bswap32_i64(ptr noundef %0, ptr noundef %1, i32 noundef %2) local_unnamed_addr #2 {
  %4 = and i32 %2, 4
  %.not = icmp eq i32 %4, 0
  br i1 %.not, label %7, label %5

5:                                                ; preds = %3
  %6 = and i32 %2, 2
  %.not4 = icmp eq i32 %6, 0
  tail call void @llvm.assume(i1 %.not4)
  br label %7

7:                                                ; preds = %3, %5
  %8 = sext i32 %2 to i64
  %9 = tail call align 8 ptr @llvm.threadlocal.address.p0(ptr align 8 @tcg_ctx)
  %10 = load ptr, ptr %9, align 8
  %11 = ptrtoint ptr %0 to i64
  %12 = getelementptr inbounds nuw i8, ptr %10, i64 %11
  %13 = ptrtoint ptr %12 to i64
  %14 = ptrtoint ptr %1 to i64
  %15 = getelementptr inbounds nuw i8, ptr %10, i64 %14
  %16 = ptrtoint ptr %15 to i64
  %17 = tail call ptr @tcg_gen_op3(i32 noundef 111, i32 noundef 1, i64 noundef %13, i64 noundef %16, i64 noundef range(i64 -2147483648, 2147483648) %8)
  ret void
}